target datalayout = "e-m:e-p270:32:32-p271:32:32-p272:64:64-i64:64-i128:128-f80:128-n8:16:32:64-S128"
target triple = "x86_64-pc-linux-gnu"

%"class.Assimp::AssbinFileWriter" = type { i8, i8 }

; Function Attrs: mustprogress nounwind uwtable
define linkonce_odr hidden void @_ZN6Assimp16AssbinFileWriterC2Ebb(ptr noundef nonnull align 1 dereferenceable(2) %0, i1 noundef zeroext %1, i1 noundef zeroext %2) unnamed_addr #3 comdat align 2 {
  %4 = alloca ptr, align 8
  %5 = alloca i8, align 1
  %6 = alloca i8, align 1
  store ptr %0, ptr %4, align 8
  %7 = zext i1 %1 to i8
  store i8 %7, ptr %5, align 1
  %8 = zext i1 %2 to i8
  store i8 %8, ptr %6, align 1
  %9 = load ptr, ptr %4, align 8
  %10 = getelementptr inbounds nuw %"class.Assimp::AssbinFileWriter", ptr %9, i32 0, i32 0
  %11 = load i8, ptr %5, align 1, !range !3, !noundef !4
  %12 = trunc i8 %11 to i1
  %13 = zext i1 %12 to i8
  store i8 %13, ptr %10, align 1
  %14 = getelementptr inbounds nuw %"class.Assimp::AssbinFileWriter", ptr %9, i32 0, i32 1
  %15 = load i8, ptr %6, align 1, !range !3, !noundef !4
  %16 = trunc i8 %15 to i1
  %17 = zext i1 %16 to i8
  store i8 %17, ptr %14, align 1
  ret void
}

; Function Attrs: mustprogress uwtable
define void @_ZN6Assimp17DumpSceneToAssbinEPKcS1_PNS_8IOSystemEPK7aiScenebb(ptr noundef %0, ptr noundef %1, ptr noundef %2, ptr noundef %3, i1 noundef zeroext %4, i1 noundef zeroext %5) #1 {
  %7 = alloca ptr, align 8
  %8 = alloca ptr, align 8
  %9 = alloca ptr, align 8
  %10 = alloca ptr, align 8
  %11 = alloca i8, align 1
  %12 = alloca i8, align 1
  %13 = alloca %"class.Assimp::AssbinFileWriter", align 1
  store ptr %0, ptr %7, align 8
  store ptr %1, ptr %8, align 8
  store ptr %2, ptr %9, align 8
  store ptr %3, ptr %10, align 8
  %14 = zext i1 %4 to i8
  store i8 %14, ptr %11, align 1
  %15 = zext i1 %5 to i8
  store i8 %15, ptr %12, align 1
  call void @llvm.lifetime.start.p0(i64 2, ptr %13) #17
  %16 = load i8, ptr %11, align 1, !range !3, !noundef !4
  %17 = trunc i8 %16 to i1
  %18 = load i8, ptr %12, align 1, !range !3, !noundef !4
  %19 = trunc i8 %18 to i1
  call void @_ZN6Assimp16AssbinFileWriterC2Ebb(ptr noundef nonnull align 1 dereferenceable(2) %13, i1 noundef zeroext %17, i1 noundef zeroext %19)
  %20 = load ptr, ptr %7, align 8
  %21 = load ptr, ptr %8, align 8
  %22 = load ptr, ptr %9, align 8
  %23 = load ptr, ptr %10, align 8
  call void @_ZN6Assimp16AssbinFileWriter15WriteBinaryDumpEPKcS2_PNS_8IOSystemEPK7aiScene(ptr noundef nonnull align 1 dereferenceable(2) %13, ptr noundef %20, ptr noundef %21, ptr noundef %22, ptr noundef %23)
  call void @llvm.lifetime.end.p0(i64 2, ptr %13) #17
  ret void
}