; Function Attrs: mustprogress uwtable
define void @_ZN6Assimp17DumpSceneToAssbinEPKcS1_PNS_8IOSystemEPK7aiScenebb(ptr noundef %0, ptr noundef %1, ptr noundef %2, ptr noundef %3, i1 noundef zeroext %4, i1 noundef zeroext %5) local_unnamed_addr #0 {
  %7 = alloca %"class.Assimp::AssbinFileWriter", align 1
  call void @llvm.lifetime.start.p0(i64 2, ptr nonnull %7) #21
  %8 = zext i1 %4 to i8
  %9 = zext i1 %5 to i8
  store i8 %8, ptr %7, align 1
  %10 = getelementptr inbounds nuw i8, ptr %7, i64 1
  store i8 %9, ptr %10, align 1
  call void @_ZN6Assimp16AssbinFileWriter15WriteBinaryDumpEPKcS2_PNS_8IOSystemEPK7aiScene(ptr noundef nonnull align 1 dereferenceable(2) %7, ptr noundef %0, ptr noundef %1, ptr noundef %2, ptr noundef %3)
  call void @llvm.lifetime.end.p0(i64 2, ptr nonnull %7) #21
  ret void
}